target datalayout = "e-m:e-p270:32:32-p271:32:32-p272:64:64-i64:64-i128:128-f80:128-n8:16:32:64-S128"
target triple = "x86_64-pc-linux-gnu"

%struct.black_TWorker_ = type { i32, i32, i32, i32, i32, ptr, ptr, ptr, ptr, i32, i8, i64, i64, i64, i64, i16, i32, ptr, ptr, ptr, i32, %struct.FT_Outline_, i32, i32, i32, ptr, ptr, ptr, ptr, ptr, ptr }
%struct.FT_Outline_ = type { i16, i16, ptr, ptr, ptr, i32 }

; Function Attrs: nounwind uwtable
define internal signext i8 @Line_Up(ptr noundef %0, i64 noundef %1, i64 noundef %2, i64 noundef %3, i64 noundef %4, i64 noundef %5, i64 noundef %6) #0 {
  %8 = alloca i8, align 1
  %9 = alloca ptr, align 8
  %10 = alloca i64, align 8
  %11 = alloca i64, align 8
  %12 = alloca i64, align 8
  %13 = alloca i64, align 8
  %14 = alloca i64, align 8
  %15 = alloca i64, align 8
  %16 = alloca i64, align 8
  %17 = alloca i64, align 8
  %18 = alloca i64, align 8
  %19 = alloca i64, align 8
  %20 = alloca i64, align 8
  %21 = alloca i64, align 8
  %22 = alloca i64, align 8
  %23 = alloca i32, align 4
  %24 = alloca ptr, align 8
  %25 = alloca i32, align 4
  store ptr %0, ptr %9, align 8, !tbaa !105
  store i64 %1, ptr %10, align 8, !tbaa !23
  store i64 %2, ptr %11, align 8, !tbaa !23
  store i64 %3, ptr %12, align 8, !tbaa !23
  store i64 %4, ptr %13, align 8, !tbaa !23
  store i64 %5, ptr %14, align 8, !tbaa !23
  store i64 %6, ptr %15, align 8, !tbaa !23
  call void @llvm.lifetime.start.p0(i64 8, ptr %16) #5
  call void @llvm.lifetime.start.p0(i64 8, ptr %17) #5
  call void @llvm.lifetime.start.p0(i64 8, ptr %18) #5
  call void @llvm.lifetime.start.p0(i64 8, ptr %19) #5
  call void @llvm.lifetime.start.p0(i64 8, ptr %20) #5
  call void @llvm.lifetime.start.p0(i64 8, ptr %21) #5
  call void @llvm.lifetime.start.p0(i64 8, ptr %22) #5
  call void @llvm.lifetime.start.p0(i64 4, ptr %23) #5
  call void @llvm.lifetime.start.p0(i64 8, ptr %24) #5
  %26 = load i64, ptr %13, align 8, !tbaa !23
  %27 = load i64, ptr %14, align 8, !tbaa !23
  %28 = icmp slt i64 %26, %27
  br i1 %28, label %33, label %29

29:                                               ; preds = %7
  %30 = load i64, ptr %11, align 8, !tbaa !23
  %31 = load i64, ptr %15, align 8, !tbaa !23
  %32 = icmp sgt i64 %30, %31
  br i1 %32, label %33, label %34

33:                                               ; preds = %29, %7
  store i8 0, ptr %8, align 1
  store i32 1, ptr %25, align 4
  br label %216

34:                                               ; preds = %29
  %35 = load i64, ptr %13, align 8, !tbaa !23
  %36 = load i64, ptr %15, align 8, !tbaa !23
  %37 = icmp sgt i64 %35, %36
  br i1 %37, label %38, label %40

38:                                               ; preds = %34
  %39 = load i64, ptr %15, align 8, !tbaa !23
  br label %48

40:                                               ; preds = %34
  %41 = load i64, ptr %13, align 8, !tbaa !23
  %42 = load ptr, ptr %9, align 8, !tbaa !105
  %43 = getelementptr inbounds nuw %struct.black_TWorker_, ptr %42, i32 0, i32 1
  %44 = load i32, ptr %43, align 4, !tbaa !117
  %45 = sub nsw i32 0, %44
  %46 = sext i32 %45 to i64
  %47 = and i64 %41, %46
  br label %48

48:                                               ; preds = %40, %38
  %49 = phi i64 [ %39, %38 ], [ %47, %40 ]
  store i64 %49, ptr %17, align 8, !tbaa !23
  %50 = load i64, ptr %11, align 8, !tbaa !23
  %51 = load i64, ptr %14, align 8, !tbaa !23
  %52 = icmp slt i64 %50, %51
  br i1 %52, label %53, label %55

53:                                               ; preds = %48
  %54 = load i64, ptr %14, align 8, !tbaa !23
  br label %69

55:                                               ; preds = %48
  %56 = load i64, ptr %11, align 8, !tbaa !23
  %57 = load ptr, ptr %9, align 8, !tbaa !105
  %58 = getelementptr inbounds nuw %struct.black_TWorker_, ptr %57, i32 0, i32 1
  %59 = load i32, ptr %58, align 4, !tbaa !117
  %60 = sext i32 %59 to i64
  %61 = add nsw i64 %56, %60
  %62 = sub nsw i64 %61, 1
  %63 = load ptr, ptr %9, align 8, !tbaa !105
  %64 = getelementptr inbounds nuw %struct.black_TWorker_, ptr %63, i32 0, i32 1
  %65 = load i32, ptr %64, align 4, !tbaa !117
  %66 = sub nsw i32 0, %65
  %67 = sext i32 %66 to i64
  %68 = and i64 %62, %67
  br label %69

69:                                               ; preds = %55, %53
  %70 = phi i64 [ %54, %53 ], [ %68, %55 ]
  store i64 %70, ptr %16, align 8, !tbaa !23
  %71 = load i64, ptr %11, align 8, !tbaa !23
  %72 = load i64, ptr %16, align 8, !tbaa !23
  %73 = icmp eq i64 %71, %72
  br i1 %73, label %74, label %81

74:                                               ; preds = %69
  %75 = load ptr, ptr %9, align 8, !tbaa !105
  %76 = getelementptr inbounds nuw %struct.black_TWorker_, ptr %75, i32 0, i32 1
  %77 = load i32, ptr %76, align 4, !tbaa !117
  %78 = sext i32 %77 to i64
  %79 = load i64, ptr %16, align 8, !tbaa !23
  %80 = add nsw i64 %79, %78
  store i64 %80, ptr %16, align 8, !tbaa !23
  br label %81

81:                                               ; preds = %74, %69
  %82 = load i64, ptr %17, align 8, !tbaa !23
  %83 = load i64, ptr %16, align 8, !tbaa !23
  %84 = icmp slt i64 %82, %83
  br i1 %84, label %85, label %86

85:                                               ; preds = %81
  store i8 0, ptr %8, align 1
  store i32 1, ptr %25, align 4
  br label %216

86:                                               ; preds = %81
  %87 = load i64, ptr %17, align 8, !tbaa !23
  %88 = load i64, ptr %16, align 8, !tbaa !23
  %89 = sub nsw i64 %87, %88
  %90 = load ptr, ptr %9, align 8, !tbaa !105
  %91 = getelementptr inbounds nuw %struct.black_TWorker_, ptr %90, i32 0, i32 0
  %92 = load i32, ptr %91, align 8, !tbaa !115
  %93 = zext i32 %92 to i64
  %94 = ashr i64 %89, %93
  %95 = trunc i64 %94 to i32
  %96 = add nsw i32 %95, 1
  store i32 %96, ptr %23, align 4, !tbaa !15
  %97 = load ptr, ptr %9, align 8, !tbaa !105
  %98 = getelementptr inbounds nuw %struct.black_TWorker_, ptr %97, i32 0, i32 8
  %99 = load ptr, ptr %98, align 8, !tbaa !129
  store ptr %99, ptr %24, align 8, !tbaa !168
  %100 = load ptr, ptr %24, align 8, !tbaa !168
  %101 = load i32, ptr %23, align 4, !tbaa !15
  %102 = sext i32 %101 to i64
  %103 = getelementptr inbounds i64, ptr %100, i64 %102
  %104 = load ptr, ptr %9, align 8, !tbaa !105
  %105 = getelementptr inbounds nuw %struct.black_TWorker_, ptr %104, i32 0, i32 7
  %106 = load ptr, ptr %105, align 8, !tbaa !130
  %107 = icmp uge ptr %103, %106
  br i1 %107, label %108, label %111

108:                                              ; preds = %86
  %109 = load ptr, ptr %9, align 8, !tbaa !105
  %110 = getelementptr inbounds nuw %struct.black_TWorker_, ptr %109, i32 0, i32 9
  store i32 98, ptr %110, align 8, !tbaa !126
  store i8 1, ptr %8, align 1
  store i32 1, ptr %25, align 4
  br label %216

111:                                              ; preds = %86
  %112 = load i64, ptr %12, align 8, !tbaa !23
  %113 = load i64, ptr %10, align 8, !tbaa !23
  %114 = sub nsw i64 %112, %113
  store i64 %114, ptr %18, align 8, !tbaa !23
  %115 = load i64, ptr %13, align 8, !tbaa !23
  %116 = load i64, ptr %11, align 8, !tbaa !23
  %117 = sub nsw i64 %115, %116
  store i64 %117, ptr %19, align 8, !tbaa !23
  %118 = load i64, ptr %18, align 8, !tbaa !23
  %119 = icmp eq i64 %118, 0
  br i1 %119, label %120, label %130

120:                                              ; preds = %111
  br label %121

121:                                              ; preds = %125, %120
  %122 = load i64, ptr %10, align 8, !tbaa !23
  %123 = load ptr, ptr %24, align 8, !tbaa !168
  %124 = getelementptr inbounds nuw i64, ptr %123, i32 1
  store ptr %124, ptr %24, align 8, !tbaa !168
  store i64 %122, ptr %123, align 8, !tbaa !23
  br label %125

125:                                              ; preds = %121
  %126 = load i32, ptr %23, align 4, !tbaa !15
  %127 = add nsw i32 %126, -1
  store i32 %127, ptr %23, align 4, !tbaa !15
  %128 = icmp ne i32 %127, 0
  br i1 %128, label %121, label %129, !llvm.loop !169

129:                                              ; preds = %125
  br label %212

130:                                              ; preds = %111
  %131 = load i64, ptr %16, align 8, !tbaa !23
  %132 = load i64, ptr %11, align 8, !tbaa !23
  %133 = sub nsw i64 %131, %132
  %134 = load i64, ptr %18, align 8, !tbaa !23
  %135 = load i64, ptr %19, align 8, !tbaa !23
  %136 = call i64 @FT_MulDiv_No_Round(i64 noundef %133, i64 noundef %134, i64 noundef %135)
  store i64 %136, ptr %20, align 8, !tbaa !23
  %137 = load i64, ptr %20, align 8, !tbaa !23
  %138 = load i64, ptr %10, align 8, !tbaa !23
  %139 = add nsw i64 %138, %137
  store i64 %139, ptr %10, align 8, !tbaa !23
  %140 = load i64, ptr %10, align 8, !tbaa !23
  %141 = load ptr, ptr %24, align 8, !tbaa !168
  %142 = getelementptr inbounds nuw i64, ptr %141, i32 1
  store ptr %142, ptr %24, align 8, !tbaa !168
  store i64 %140, ptr %141, align 8, !tbaa !23
  %143 = load i32, ptr %23, align 4, !tbaa !15
  %144 = add nsw i32 %143, -1
  store i32 %144, ptr %23, align 4, !tbaa !15
  %145 = icmp ne i32 %144, 0
  br i1 %145, label %146, label %211

146:                                              ; preds = %130
  %147 = load i64, ptr %18, align 8, !tbaa !23
  %148 = load i64, ptr %16, align 8, !tbaa !23
  %149 = load i64, ptr %11, align 8, !tbaa !23
  %150 = sub nsw i64 %148, %149
  %151 = mul nsw i64 %147, %150
  %152 = load i64, ptr %19, align 8, !tbaa !23
  %153 = load i64, ptr %20, align 8, !tbaa !23
  %154 = mul nsw i64 %152, %153
  %155 = sub nsw i64 %151, %154
  store i64 %155, ptr %22, align 8, !tbaa !23
  %156 = load ptr, ptr %9, align 8, !tbaa !105
  %157 = getelementptr inbounds nuw %struct.black_TWorker_, ptr %156, i32 0, i32 1
  %158 = load i32, ptr %157, align 4, !tbaa !117
  %159 = sext i32 %158 to i64
  %160 = load i64, ptr %18, align 8, !tbaa !23
  %161 = mul nsw i64 %159, %160
  %162 = load i64, ptr %19, align 8, !tbaa !23
  %163 = sdiv i64 %161, %162
  store i64 %163, ptr %20, align 8, !tbaa !23
  %164 = load i64, ptr %18, align 8, !tbaa !23
  %165 = load ptr, ptr %9, align 8, !tbaa !105
  %166 = getelementptr inbounds nuw %struct.black_TWorker_, ptr %165, i32 0, i32 1
  %167 = load i32, ptr %166, align 4, !tbaa !117
  %168 = sext i32 %167 to i64
  %169 = mul nsw i64 %164, %168
  %170 = load i64, ptr %19, align 8, !tbaa !23
  %171 = load i64, ptr %20, align 8, !tbaa !23
  %172 = mul nsw i64 %170, %171
  %173 = sub nsw i64 %169, %172
  store i64 %173, ptr %21, align 8, !tbaa !23
  store i64 1, ptr %18, align 8, !tbaa !23
  %174 = load i64, ptr %12, align 8, !tbaa !23
  %175 = load i64, ptr %10, align 8, !tbaa !23
  %176 = icmp slt i64 %174, %175
  br i1 %176, label %177, label %184

177:                                              ; preds = %146
  %178 = load i64, ptr %22, align 8, !tbaa !23
  %179 = sub nsw i64 0, %178
  store i64 %179, ptr %22, align 8, !tbaa !23
  %180 = load i64, ptr %21, align 8, !tbaa !23
  %181 = sub nsw i64 0, %180
  store i64 %181, ptr %21, align 8, !tbaa !23
  %182 = load i64, ptr %18, align 8, !tbaa !23
  %183 = sub nsw i64 0, %182
  store i64 %183, ptr %18, align 8, !tbaa !23
  br label %184

184:                                              ; preds = %177, %146
  br label %185

185:                                              ; preds = %206, %184
  %186 = load i64, ptr %20, align 8, !tbaa !23
  %187 = load i64, ptr %10, align 8, !tbaa !23
  %188 = add nsw i64 %187, %186
  store i64 %188, ptr %10, align 8, !tbaa !23
  %189 = load i64, ptr %21, align 8, !tbaa !23
  %190 = load i64, ptr %22, align 8, !tbaa !23
  %191 = add nsw i64 %190, %189
  store i64 %191, ptr %22, align 8, !tbaa !23
  %192 = load i64, ptr %22, align 8, !tbaa !23
  %193 = load i64, ptr %19, align 8, !tbaa !23
  %194 = icmp sge i64 %192, %193
  br i1 %194, label %195, label %202

195:                                              ; preds = %185
  %196 = load i64, ptr %19, align 8, !tbaa !23
  %197 = load i64, ptr %22, align 8, !tbaa !23
  %198 = sub nsw i64 %197, %196
  store i64 %198, ptr %22, align 8, !tbaa !23
  %199 = load i64, ptr %18, align 8, !tbaa !23
  %200 = load i64, ptr %10, align 8, !tbaa !23
  %201 = add nsw i64 %200, %199
  store i64 %201, ptr %10, align 8, !tbaa !23
  br label %202

202:                                              ; preds = %195, %185
  %203 = load i64, ptr %10, align 8, !tbaa !23
  %204 = load ptr, ptr %24, align 8, !tbaa !168
  %205 = getelementptr inbounds nuw i64, ptr %204, i32 1
  store ptr %205, ptr %24, align 8, !tbaa !168
  store i64 %203, ptr %204, align 8, !tbaa !23
  br label %206

206:                                              ; preds = %202
  %207 = load i32, ptr %23, align 4, !tbaa !15
  %208 = add nsw i32 %207, -1
  store i32 %208, ptr %23, align 4, !tbaa !15
  %209 = icmp ne i32 %208, 0
  br i1 %209, label %185, label %210, !llvm.loop !170

210:                                              ; preds = %206
  br label %211

211:                                              ; preds = %210, %130
  br label %212

212:                                              ; preds = %211, %129
  %213 = load ptr, ptr %24, align 8, !tbaa !168
  %214 = load ptr, ptr %9, align 8, !tbaa !105
  %215 = getelementptr inbounds nuw %struct.black_TWorker_, ptr %214, i32 0, i32 8
  store ptr %213, ptr %215, align 8, !tbaa !129
  store i8 0, ptr %8, align 1
  store i32 1, ptr %25, align 4
  br label %216

216:                                              ; preds = %212, %108, %85, %33
  call void @llvm.lifetime.end.p0(i64 8, ptr %24) #5
  call void @llvm.lifetime.end.p0(i64 4, ptr %23) #5
  call void @llvm.lifetime.end.p0(i64 8, ptr %22) #5
  call void @llvm.lifetime.end.p0(i64 8, ptr %21) #5
  call void @llvm.lifetime.end.p0(i64 8, ptr %20) #5
  call void @llvm.lifetime.end.p0(i64 8, ptr %19) #5
  call void @llvm.lifetime.end.p0(i64 8, ptr %18) #5
  call void @llvm.lifetime.end.p0(i64 8, ptr %17) #5
  call void @llvm.lifetime.end.p0(i64 8, ptr %16) #5
  %217 = load i8, ptr %8, align 1
  ret i8 %217
}