; Function Attrs: nounwind uwtable
define internal fastcc signext range(i8 0, 2) i8 @Line_Up(ptr noundef nonnull captures(none) %0, i64 noundef %1, i64 noundef %2, i64 noundef %3, i64 noundef %4, i64 noundef %5, i64 noundef %6) unnamed_addr #0 {
  %8 = icmp slt i64 %4, %5
  %9 = icmp sgt i64 %2, %6
  %or.cond = or i1 %8, %9
  br i1 %or.cond, label %86, label %10

10:                                               ; preds = %7
  %11 = icmp sgt i64 %4, %6
  br i1 %11, label %18, label %12

12:                                               ; preds = %10
  %13 = getelementptr inbounds nuw i8, ptr %0, i64 4
  %14 = load i32, ptr %13, align 4, !tbaa !88
  %15 = sub nsw i32 0, %14
  %16 = sext i32 %15 to i64
  %17 = and i64 %4, %16
  br label %18

18:                                               ; preds = %10, %12
  %19 = phi i64 [ %17, %12 ], [ %6, %10 ]
  %20 = icmp slt i64 %2, %5
  br i1 %20, label %30, label %21

21:                                               ; preds = %18
  %22 = getelementptr inbounds nuw i8, ptr %0, i64 4
  %23 = load i32, ptr %22, align 4, !tbaa !88
  %24 = sext i32 %23 to i64
  %25 = add i64 %2, -1
  %26 = add i64 %25, %24
  %27 = sub nsw i32 0, %23
  %28 = sext i32 %27 to i64
  %29 = and i64 %26, %28
  br label %30

30:                                               ; preds = %18, %21
  %31 = phi i64 [ %29, %21 ], [ %5, %18 ]
  %32 = icmp eq i64 %2, %31
  br i1 %32, label %33, label %38

33:                                               ; preds = %30
  %34 = getelementptr inbounds nuw i8, ptr %0, i64 4
  %35 = load i32, ptr %34, align 4, !tbaa !88
  %36 = sext i32 %35 to i64
  %37 = add nsw i64 %2, %36
  br label %38

38:                                               ; preds = %33, %30
  %.088 = phi i64 [ %37, %33 ], [ %31, %30 ]
  %39 = icmp slt i64 %19, %.088
  br i1 %39, label %86, label %40

40:                                               ; preds = %38
  %41 = sub nsw i64 %19, %.088
  %42 = load i32, ptr %0, align 8, !tbaa !86
  %43 = zext nneg i32 %42 to i64
  %44 = ashr i64 %41, %43
  %45 = trunc i64 %44 to i32
  %46 = add nsw i32 %45, 1
  %47 = getelementptr inbounds nuw i8, ptr %0, i64 48
  %48 = load ptr, ptr %47, align 8, !tbaa !100
  %49 = sext i32 %46 to i64
  %50 = getelementptr inbounds i64, ptr %48, i64 %49
  %51 = getelementptr inbounds nuw i8, ptr %0, i64 40
  %52 = load ptr, ptr %51, align 8, !tbaa !101
  %.not = icmp ult ptr %50, %52
  br i1 %.not, label %55, label %53

53:                                               ; preds = %40
  %54 = getelementptr inbounds nuw i8, ptr %0, i64 56
  store i32 98, ptr %54, align 8, !tbaa !99
  br label %86

55:                                               ; preds = %40
  %56 = sub nsw i64 %3, %1
  %57 = sub nsw i64 %4, %2
  %58 = icmp eq i64 %3, %1
  br i1 %58, label %.preheader, label %61

.preheader:                                       ; preds = %55, %.preheader
  %.078 = phi i32 [ %60, %.preheader ], [ %46, %55 ]
  %.0 = phi ptr [ %59, %.preheader ], [ %48, %55 ]
  %59 = getelementptr inbounds nuw i8, ptr %.0, i64 8
  store i64 %3, ptr %.0, align 8, !tbaa !124
  %60 = add nsw i32 %.078, -1
  %.not105 = icmp eq i32 %60, 0
  br i1 %.not105, label %.loopexit, label %.preheader, !llvm.loop !145

61:                                               ; preds = %55
  %62 = sub nsw i64 %.088, %2
  %63 = tail call i64 @FT_MulDiv_No_Round(i64 noundef %62, i64 noundef %56, i64 noundef %57) #10
  %64 = add nsw i64 %63, %1
  %65 = getelementptr inbounds nuw i8, ptr %48, i64 8
  store i64 %64, ptr %48, align 8, !tbaa !124
  %.not102 = icmp eq i32 %45, 0
  br i1 %.not102, label %.loopexit, label %66

66:                                               ; preds = %61
  %67 = mul nsw i64 %62, %56
  %68 = mul nsw i64 %63, %57
  %69 = sub nsw i64 %67, %68
  %70 = getelementptr inbounds nuw i8, ptr %0, i64 4
  %71 = load i32, ptr %70, align 4, !tbaa !88
  %72 = sext i32 %71 to i64
  %73 = mul nsw i64 %56, %72
  %74 = sdiv i64 %73, %57
  %75 = mul nsw i64 %74, %57
  %.recomposed = srem i64 %73, %57
  %76 = icmp slt i64 %3, %64
  %77 = sub nsw i64 0, %69
  %78 = sub nsw i64 0, %.recomposed
  %.085 = select i1 %76, i64 -1, i64 1
  %.083 = select i1 %76, i64 %78, i64 %.recomposed
  %.080 = select i1 %76, i64 %77, i64 %69
  br label %79

79:                                               ; preds = %79, %66
  %.086 = phi i64 [ %64, %66 ], [ %.187, %79 ]
  %.181 = phi i64 [ %.080, %66 ], [ %.282, %79 ]
  %.179 = phi i32 [ %45, %66 ], [ %85, %79 ]
  %.2 = phi ptr [ %65, %66 ], [ %84, %79 ]
  %80 = add nsw i64 %.086, %74
  %81 = add nsw i64 %.181, %.083
  %.not103 = icmp slt i64 %81, %57
  %82 = select i1 %.not103, i64 0, i64 %.085
  %.187 = add nsw i64 %80, %82
  %83 = select i1 %.not103, i64 0, i64 %57
  %.282 = sub nsw i64 %81, %83
  %84 = getelementptr inbounds nuw i8, ptr %.2, i64 8
  store i64 %.187, ptr %.2, align 8, !tbaa !124
  %85 = add nsw i32 %.179, -1
  %.not104 = icmp eq i32 %85, 0
  br i1 %.not104, label %.loopexit, label %79, !llvm.loop !146

.loopexit:                                        ; preds = %79, %.preheader, %61
  %.1 = phi ptr [ %65, %61 ], [ %59, %.preheader ], [ %84, %79 ]
  store ptr %.1, ptr %47, align 8, !tbaa !100
  br label %86

86:                                               ; preds = %38, %7, %.loopexit, %53
  %.084 = phi i8 [ 1, %53 ], [ 0, %.loopexit ], [ 0, %7 ], [ 0, %38 ]
  ret i8 %.084
}